target datalayout = "e-m:e-p270:32:32-p271:32:32-p272:64:64-i64:64-i128:128-f80:128-n8:16:32:64-S128"
target triple = "x86_64-unknown-linux-gnu"

%"struct.OpenImageIO_v2_6_0::TypeDesc" = type { i8, i8, i8, i8, i32 }
%"class.std::__cxx11::basic_string" = type { %"struct.std::__cxx11::basic_string<char>::_Alloc_hider", i64, %union.anon.2 }
%"struct.std::__cxx11::basic_string<char>::_Alloc_hider" = type { ptr }
%union.anon.2 = type { i64, [8 x i8] }
%"class.OpenImageIO_v2_6_0::ustring" = type { ptr }
%"class.OpenImageIO_v2_6_0::ParamValue" = type <{ %"class.OpenImageIO_v2_6_0::ustring", %"struct.OpenImageIO_v2_6_0::TypeDesc", %union.anon.1, i32, i8, i8, i8, i8 }>
%union.anon.1 = type { ptr, [8 x i8] }
%"class.fmt::v8::basic_string_view" = type { ptr, i64 }
%"class.fmt::v8::basic_format_args" = type { i64, %union.anon.9 }
%union.anon.9 = type { ptr }
%"class.fmt::v8::detail::value" = type { %union.anon.10 }
%union.anon.10 = type { i128 }
%"struct.fmt::v8::detail::arg_data" = type { [1 x %"class.fmt::v8::detail::value"] }
%"struct.fmt::v8::detail::arg_mapper" = type { i8 }
%"class.fmt::v8::format_arg_store.118" = type { %"struct.fmt::v8::detail::arg_data" }

@.str.5 = private unnamed_addr constant [3 x i8] c", \00", align 1
@.str.14 = private unnamed_addr constant [2 x i8] c" \00", align 1

; Function Attrs: mustprogress uwtable
define linkonce_odr hidden { i64, i64 } @_ZN3fmt2v816make_format_argsINS0_20basic_format_contextINS0_8appenderEcEEJRKjEEENS0_16format_arg_storeIT_JDpNSt9remove_cvINSt16remove_referenceIT0_E4typeEE4typeEEEEDpOSB_(ptr noundef nonnull align 4 dereferenceable(4) %args) #7 comdat {
entry:
  %this.addr.i7 = alloca ptr, align 8
  %val.addr.i8 = alloca i32, align 4
  %this.addr.i4 = alloca ptr, align 8
  %val.addr.i5 = alloca i32, align 4
  %.addr.i = alloca ptr, align 8
  %.addr1.i = alloca i32, align 4
  %.addr2.i = alloca i32, align 4
  %.addr3.i = alloca ptr, align 8
  %retval.i = alloca %"class.fmt::v8::detail::value", align 16
  %val.addr.i = alloca ptr, align 8
  %arg.i = alloca ptr, align 8
  %ref.tmp.i2 = alloca i32, align 4
  %ref.tmp1.i = alloca %"struct.fmt::v8::detail::arg_mapper", align 1
  %formattable_char.i = alloca i8, align 1
  %formattable_const.i = alloca i8, align 1
  %formattable_pointer.i = alloca i8, align 1
  %formattable.i = alloca i8, align 1
  %this.addr.i5.i = alloca ptr, align 8
  %this.addr.i.i = alloca ptr, align 8
  %init.addr.i.i = alloca ptr, align 8
  %this.addr.i = alloca ptr, align 8
  %args.addr.i = alloca ptr, align 8
  %ref.tmp.i = alloca %"class.fmt::v8::detail::value", align 16
  %retval = alloca %"class.fmt::v8::format_arg_store.118", align 16
  %args.addr = alloca ptr, align 8
  store ptr %args, ptr %args.addr, align 8
  %0 = load ptr, ptr %args.addr, align 8
  store ptr %retval, ptr %this.addr.i, align 8
  store ptr %0, ptr %args.addr.i, align 8
  %this1.i = load ptr, ptr %this.addr.i, align 8
  %1 = load ptr, ptr %args.addr.i, align 8
  store ptr %1, ptr %val.addr.i, align 8
  %2 = load ptr, ptr %val.addr.i, align 8
  %3 = load i32, ptr %2, align 4
  store ptr %ref.tmp1.i, ptr %this.addr.i4, align 8
  store i32 %3, ptr %val.addr.i5, align 4
  %4 = load i32, ptr %val.addr.i5, align 4
  store i32 %4, ptr %ref.tmp.i2, align 4
  store ptr %ref.tmp.i2, ptr %arg.i, align 8
  store i8 1, ptr %formattable_char.i, align 1
  store i8 1, ptr %formattable_const.i, align 1
  store i8 1, ptr %formattable_pointer.i, align 1
  store i8 1, ptr %formattable.i, align 1
  %5 = load ptr, ptr %arg.i, align 8
  %6 = load i32, ptr %5, align 4
  store ptr %retval.i, ptr %this.addr.i7, align 8
  store i32 %6, ptr %val.addr.i8, align 4
  %this1.i9 = load ptr, ptr %this.addr.i7, align 8
  %7 = load i32, ptr %val.addr.i8, align 4
  store i32 %7, ptr %this1.i9, align 16
  %8 = load { i64, i64 }, ptr %retval.i, align 16
  %9 = extractvalue { i64, i64 } %8, 0
  store i64 %9, ptr %ref.tmp.i, align 16
  %10 = getelementptr inbounds { i64, i64 }, ptr %ref.tmp.i, i32 0, i32 1
  %11 = extractvalue { i64, i64 } %8, 1
  store i64 %11, ptr %10, align 8
  store ptr %this1.i, ptr %this.addr.i.i, align 8
  store ptr %ref.tmp.i, ptr %init.addr.i.i, align 8
  %this1.i.i = load ptr, ptr %this.addr.i.i, align 8
  %12 = load ptr, ptr %init.addr.i.i, align 8
  call void @llvm.memcpy.p0.p0.i64(ptr align 16 %this1.i.i, ptr align 16 %12, i64 16, i1 false)
  store ptr %this1.i, ptr %this.addr.i5.i, align 8
  %13 = load ptr, ptr %args.addr.i, align 8
  store ptr null, ptr %.addr.i, align 8
  store i32 0, ptr %.addr1.i, align 4
  store i32 0, ptr %.addr2.i, align 4
  store ptr %13, ptr %.addr3.i, align 8
  %coerce.dive = getelementptr inbounds %"class.fmt::v8::format_arg_store.118", ptr %retval, i32 0, i32 0
  %coerce.dive1 = getelementptr inbounds %"struct.fmt::v8::detail::arg_data", ptr %coerce.dive, i32 0, i32 0
  %14 = load { i64, i64 }, ptr %coerce.dive1, align 16
  ret { i64, i64 } %14
}

; Function Attrs: mustprogress nounwind uwtable
define linkonce_odr noundef i64 @_ZNSt11char_traitsIcE6lengthEPKc(ptr noundef %__s) #4 comdat align 2 {
entry:
  %__s.addr = alloca ptr, align 8
  store ptr %__s, ptr %__s.addr, align 8
  %0 = load ptr, ptr %__s.addr, align 8
  %call = call i64 @strlen(ptr noundef %0) #3
  ret i64 %call
}

; Function Attrs: mustprogress nounwind uwtable
define linkonce_odr void @_ZN18OpenImageIO_v2_6_08TypeDescC2ERKS0_(ptr noundef nonnull align 4 dereferenceable(8) %this, ptr noundef nonnull align 4 dereferenceable(8) %t) unnamed_addr #4 comdat align 2 {
entry:
  %this.addr = alloca ptr, align 8
  %t.addr = alloca ptr, align 8
  store ptr %this, ptr %this.addr, align 8
  store ptr %t, ptr %t.addr, align 8
  %this1 = load ptr, ptr %this.addr, align 8
  %basetype = getelementptr inbounds %"struct.OpenImageIO_v2_6_0::TypeDesc", ptr %this1, i32 0, i32 0
  %0 = load ptr, ptr %t.addr, align 8
  %basetype2 = getelementptr inbounds %"struct.OpenImageIO_v2_6_0::TypeDesc", ptr %0, i32 0, i32 0
  %1 = load i8, ptr %basetype2, align 4
  store i8 %1, ptr %basetype, align 4
  %aggregate = getelementptr inbounds %"struct.OpenImageIO_v2_6_0::TypeDesc", ptr %this1, i32 0, i32 1
  %2 = load ptr, ptr %t.addr, align 8
  %aggregate3 = getelementptr inbounds %"struct.OpenImageIO_v2_6_0::TypeDesc", ptr %2, i32 0, i32 1
  %3 = load i8, ptr %aggregate3, align 1
  store i8 %3, ptr %aggregate, align 1
  %vecsemantics = getelementptr inbounds %"struct.OpenImageIO_v2_6_0::TypeDesc", ptr %this1, i32 0, i32 2
  %4 = load ptr, ptr %t.addr, align 8
  %vecsemantics4 = getelementptr inbounds %"struct.OpenImageIO_v2_6_0::TypeDesc", ptr %4, i32 0, i32 2
  %5 = load i8, ptr %vecsemantics4, align 2
  store i8 %5, ptr %vecsemantics, align 2
  %reserved = getelementptr inbounds %"struct.OpenImageIO_v2_6_0::TypeDesc", ptr %this1, i32 0, i32 3
  store i8 0, ptr %reserved, align 1
  %arraylen = getelementptr inbounds %"struct.OpenImageIO_v2_6_0::TypeDesc", ptr %this1, i32 0, i32 4
  %6 = load ptr, ptr %t.addr, align 8
  %arraylen5 = getelementptr inbounds %"struct.OpenImageIO_v2_6_0::TypeDesc", ptr %6, i32 0, i32 4
  %7 = load i32, ptr %arraylen5, align 4
  store i32 %7, ptr %arraylen, align 4
  ret void
}

; Function Attrs: mustprogress uwtable
define linkonce_odr hidden void @_ZN18OpenImageIO_v2_6_07Strutil3fmt6formatIPKcJRKjEEENSt7__cxx1112basic_stringIcSt11char_traitsIcESaIcEEERKT_DpOT0_(ptr noalias sret(%"class.std::__cxx11::basic_string") align 8 %agg.result, ptr noundef nonnull align 8 dereferenceable(8) %fmt, ptr noundef nonnull align 4 dereferenceable(4) %args) #7 comdat {
entry:
  %this.addr.i2.i = alloca ptr, align 8
  %desc.addr.i.i = alloca i64, align 8
  %values.addr.i.i = alloca ptr, align 8
  %this.addr.i.i = alloca ptr, align 8
  %this.addr.i3 = alloca ptr, align 8
  %store.addr.i = alloca ptr, align 8
  %this.addr.i = alloca ptr, align 8
  %s.addr.i = alloca ptr, align 8
  %result.ptr = alloca ptr, align 8
  %fmt.addr = alloca ptr, align 8
  %args.addr = alloca ptr, align 8
  %agg.tmp = alloca %"class.fmt::v8::basic_string_view", align 8
  %agg.tmp1 = alloca %"class.fmt::v8::basic_format_args", align 8
  %ref.tmp = alloca %"class.fmt::v8::format_arg_store.118", align 16
  store ptr %agg.result, ptr %result.ptr, align 8
  store ptr %fmt, ptr %fmt.addr, align 8
  store ptr %args, ptr %args.addr, align 8
  %0 = load ptr, ptr %fmt.addr, align 8
  %1 = load ptr, ptr %0, align 8
  store ptr %agg.tmp, ptr %this.addr.i, align 8
  store ptr %1, ptr %s.addr.i, align 8
  %this1.i = load ptr, ptr %this.addr.i, align 8
  %2 = load ptr, ptr %s.addr.i, align 8
  store ptr %2, ptr %this1.i, align 8
  %size_.i = getelementptr inbounds %"class.fmt::v8::basic_string_view", ptr %this1.i, i32 0, i32 1
  %3 = load ptr, ptr %s.addr.i, align 8
  %call.i = call noundef i64 @_ZNSt11char_traitsIcE6lengthEPKc(ptr noundef %3)
  store i64 %call.i, ptr %size_.i, align 8
  %4 = load ptr, ptr %args.addr, align 8
  %call = call { i64, i64 } @_ZN3fmt2v816make_format_argsINS0_20basic_format_contextINS0_8appenderEcEEJRKjEEENS0_16format_arg_storeIT_JDpNSt9remove_cvINSt16remove_referenceIT0_E4typeEE4typeEEEEDpOSB_(ptr noundef nonnull align 4 dereferenceable(4) %4)
  %coerce.dive = getelementptr inbounds %"class.fmt::v8::format_arg_store.118", ptr %ref.tmp, i32 0, i32 0
  %coerce.dive2 = getelementptr inbounds %"struct.fmt::v8::detail::arg_data", ptr %coerce.dive, i32 0, i32 0
  %5 = getelementptr inbounds { i64, i64 }, ptr %coerce.dive2, i32 0, i32 0
  %6 = extractvalue { i64, i64 } %call, 0
  store i64 %6, ptr %5, align 16
  %7 = getelementptr inbounds { i64, i64 }, ptr %coerce.dive2, i32 0, i32 1
  %8 = extractvalue { i64, i64 } %call, 1
  store i64 %8, ptr %7, align 8
  store ptr %agg.tmp1, ptr %this.addr.i3, align 8
  store ptr %ref.tmp, ptr %store.addr.i, align 8
  %this1.i4 = load ptr, ptr %this.addr.i3, align 8
  %9 = load ptr, ptr %store.addr.i, align 8
  store ptr %9, ptr %this.addr.i.i, align 8
  %this1.i.i = load ptr, ptr %this.addr.i.i, align 8
  store ptr %this1.i4, ptr %this.addr.i2.i, align 8
  store i64 2, ptr %desc.addr.i.i, align 8
  store ptr %this1.i.i, ptr %values.addr.i.i, align 8
  %this1.i3.i = load ptr, ptr %this.addr.i2.i, align 8
  %10 = load i64, ptr %desc.addr.i.i, align 8
  store i64 %10, ptr %this1.i3.i, align 8
  %11 = getelementptr inbounds %"class.fmt::v8::basic_format_args", ptr %this1.i3.i, i32 0, i32 1
  %12 = load ptr, ptr %values.addr.i.i, align 8
  store ptr %12, ptr %11, align 8
  %13 = getelementptr inbounds { ptr, i64 }, ptr %agg.tmp, i32 0, i32 0
  %14 = load ptr, ptr %13, align 8
  %15 = getelementptr inbounds { ptr, i64 }, ptr %agg.tmp, i32 0, i32 1
  %16 = load i64, ptr %15, align 8
  %17 = getelementptr inbounds { i64, ptr }, ptr %agg.tmp1, i32 0, i32 0
  %18 = load i64, ptr %17, align 8
  %19 = getelementptr inbounds { i64, ptr }, ptr %agg.tmp1, i32 0, i32 1
  %20 = load ptr, ptr %19, align 8
  call void @_ZN3fmt2v87vformatB5cxx11ENS0_17basic_string_viewIcEENS0_17basic_format_argsINS0_20basic_format_contextINS0_8appenderEcEEEE(ptr sret(%"class.std::__cxx11::basic_string") align 8 %agg.result, ptr %14, i64 %16, i64 %18, ptr %20)
  ret void
}

; Function Attrs: mustprogress nounwind uwtable
define linkonce_odr noundef ptr @_ZNK18OpenImageIO_v2_6_010ParamValue4dataEv(ptr noundef nonnull align 8 dereferenceable(39) %this) #4 comdat align 2 {
entry:
  %this.addr = alloca ptr, align 8
  store ptr %this, ptr %this.addr, align 8
  %this1 = load ptr, ptr %this.addr, align 8
  %m_nonlocal = getelementptr inbounds %"class.OpenImageIO_v2_6_0::ParamValue", ptr %this1, i32 0, i32 6
  %0 = load i8, ptr %m_nonlocal, align 2
  %tobool = trunc i8 %0 to i1
  br i1 %tobool, label %cond.true, label %cond.false

cond.true:                                        ; preds = %entry
  %m_data = getelementptr inbounds %"class.OpenImageIO_v2_6_0::ParamValue", ptr %this1, i32 0, i32 2
  %1 = load ptr, ptr %m_data, align 8
  br label %cond.end

cond.false:                                       ; preds = %entry
  %m_data2 = getelementptr inbounds %"class.OpenImageIO_v2_6_0::ParamValue", ptr %this1, i32 0, i32 2
  br label %cond.end

cond.end:                                         ; preds = %cond.false, %cond.true
  %cond = phi ptr [ %1, %cond.true ], [ %m_data2, %cond.false ]
  ret ptr %cond
}

; Function Attrs: mustprogress nounwind uwtable
define linkonce_odr void @_ZNK18OpenImageIO_v2_6_08TypeDesc11elementtypeEv(ptr noalias sret(%"struct.OpenImageIO_v2_6_0::TypeDesc") align 4 %agg.result, ptr noundef nonnull align 4 dereferenceable(8) %this) #4 comdat align 2 {
entry:
  %result.ptr = alloca ptr, align 8
  %this.addr = alloca ptr, align 8
  store ptr %agg.result, ptr %result.ptr, align 8
  store ptr %this, ptr %this.addr, align 8
  %this1 = load ptr, ptr %this.addr, align 8
  call void @_ZN18OpenImageIO_v2_6_08TypeDescC2ERKS0_(ptr noundef nonnull align 4 dereferenceable(8) %agg.result, ptr noundef nonnull align 4 dereferenceable(8) %this1) #3
  %arraylen = getelementptr inbounds %"struct.OpenImageIO_v2_6_0::TypeDesc", ptr %agg.result, i32 0, i32 4
  store i32 0, ptr %arraylen, align 4
  ret void
}

; Function Attrs: mustprogress nounwind uwtable
define linkonce_odr void @_ZNK18OpenImageIO_v2_6_010ParamValue4typeEv(ptr noalias sret(%"struct.OpenImageIO_v2_6_0::TypeDesc") align 4 %agg.result, ptr noundef nonnull align 8 dereferenceable(39) %this) #4 comdat align 2 {
entry:
  %result.ptr = alloca ptr, align 8
  %this.addr = alloca ptr, align 8
  store ptr %agg.result, ptr %result.ptr, align 8
  store ptr %this, ptr %this.addr, align 8
  %this1 = load ptr, ptr %this.addr, align 8
  %m_type = getelementptr inbounds %"class.OpenImageIO_v2_6_0::ParamValue", ptr %this1, i32 0, i32 1
  call void @_ZN18OpenImageIO_v2_6_08TypeDescC2ERKS0_(ptr noundef nonnull align 4 dereferenceable(8) %agg.result, ptr noundef nonnull align 4 dereferenceable(8) %m_type) #3
  ret void
}

; Function Attrs: mustprogress uwtable
define internal void @_ZN18OpenImageIO_v2_6_012_GLOBAL__N_110formatTypeIjEEvRKNS_10ParamValueEiiPKcRNSt7__cxx1112basic_stringIcSt11char_traitsIcESaIcEEE(ptr noundef nonnull align 8 dereferenceable(39) %p, i32 noundef %beginindex, i32 noundef %endindex, ptr noundef %formatString, ptr noundef nonnull align 8 dereferenceable(32) %out) #7 personality ptr @__gxx_personality_v0 {
entry:
  %p.addr = alloca ptr, align 8
  %beginindex.addr = alloca i32, align 4
  %endindex.addr = alloca i32, align 4
  %formatString.addr = alloca ptr, align 8
  %out.addr = alloca ptr, align 8
  %element = alloca %"struct.OpenImageIO_v2_6_0::TypeDesc", align 4
  %ref.tmp = alloca %"struct.OpenImageIO_v2_6_0::TypeDesc", align 4
  %f = alloca ptr, align 8
  %i = alloca i32, align 4
  %c = alloca i32, align 4
  %ref.tmp11 = alloca %"class.std::__cxx11::basic_string", align 8
  %exn.slot = alloca ptr, align 8
  %ehselector.slot = alloca i32, align 4
  store ptr %p, ptr %p.addr, align 8
  store i32 %beginindex, ptr %beginindex.addr, align 4
  store i32 %endindex, ptr %endindex.addr, align 4
  store ptr %formatString, ptr %formatString.addr, align 8
  store ptr %out, ptr %out.addr, align 8
  %0 = load ptr, ptr %p.addr, align 8
  call void @_ZNK18OpenImageIO_v2_6_010ParamValue4typeEv(ptr sret(%"struct.OpenImageIO_v2_6_0::TypeDesc") align 4 %ref.tmp, ptr noundef nonnull align 8 dereferenceable(39) %0) #3
  call void @_ZNK18OpenImageIO_v2_6_08TypeDesc11elementtypeEv(ptr sret(%"struct.OpenImageIO_v2_6_0::TypeDesc") align 4 %element, ptr noundef nonnull align 4 dereferenceable(8) %ref.tmp) #3
  %1 = load ptr, ptr %p.addr, align 8
  %call = call noundef ptr @_ZNK18OpenImageIO_v2_6_010ParamValue4dataEv(ptr noundef nonnull align 8 dereferenceable(39) %1) #3
  %2 = load i32, ptr %beginindex.addr, align 4
  %aggregate = getelementptr inbounds %"struct.OpenImageIO_v2_6_0::TypeDesc", ptr %element, i32 0, i32 1
  %3 = load i8, ptr %aggregate, align 1
  %conv = zext i8 %3 to i32
  %mul = mul nsw i32 %2, %conv
  %idx.ext = sext i32 %mul to i64
  %add.ptr = getelementptr inbounds i32, ptr %call, i64 %idx.ext
  store ptr %add.ptr, ptr %f, align 8
  %4 = load i32, ptr %beginindex.addr, align 4
  store i32 %4, ptr %i, align 4
  br label %for.cond

for.cond:                                         ; preds = %for.inc13, %entry
  %5 = load i32, ptr %i, align 4
  %6 = load i32, ptr %endindex.addr, align 4
  %cmp = icmp slt i32 %5, %6
  br i1 %cmp, label %for.body, label %for.end15

for.body:                                         ; preds = %for.cond
  %7 = load i32, ptr %i, align 4
  %8 = load i32, ptr %beginindex.addr, align 4
  %cmp1 = icmp sgt i32 %7, %8
  br i1 %cmp1, label %if.then, label %if.end

if.then:                                          ; preds = %for.body
  %9 = load ptr, ptr %out.addr, align 8
  %call2 = call noundef nonnull align 8 dereferenceable(32) ptr @_ZNSt7__cxx1112basic_stringIcSt11char_traitsIcESaIcEEpLEPKc(ptr noundef nonnull align 8 dereferenceable(32) %9, ptr noundef @.str.5)
  br label %if.end

if.end:                                           ; preds = %if.then, %for.body
  store i32 0, ptr %c, align 4
  br label %for.cond3

for.cond3:                                        ; preds = %for.inc, %if.end
  %10 = load i32, ptr %c, align 4
  %aggregate4 = getelementptr inbounds %"struct.OpenImageIO_v2_6_0::TypeDesc", ptr %element, i32 0, i32 1
  %11 = load i8, ptr %aggregate4, align 1
  %conv5 = zext i8 %11 to i32
  %cmp6 = icmp slt i32 %10, %conv5
  br i1 %cmp6, label %for.body7, label %for.end

for.body7:                                        ; preds = %for.cond3
  %12 = load i32, ptr %c, align 4
  %tobool = icmp ne i32 %12, 0
  br i1 %tobool, label %if.then8, label %if.end10

if.then8:                                         ; preds = %for.body7
  %13 = load ptr, ptr %out.addr, align 8
  %call9 = call noundef nonnull align 8 dereferenceable(32) ptr @_ZNSt7__cxx1112basic_stringIcSt11char_traitsIcESaIcEEpLEPKc(ptr noundef nonnull align 8 dereferenceable(32) %13, ptr noundef @.str.14)
  br label %if.end10

if.end10:                                         ; preds = %if.then8, %for.body7
  %14 = load ptr, ptr %f, align 8
  %arrayidx = getelementptr inbounds i32, ptr %14, i64 0
  call void @_ZN18OpenImageIO_v2_6_07Strutil3fmt6formatIPKcJRKjEEENSt7__cxx1112basic_stringIcSt11char_traitsIcESaIcEEERKT_DpOT0_(ptr sret(%"class.std::__cxx11::basic_string") align 8 %ref.tmp11, ptr noundef nonnull align 8 dereferenceable(8) %formatString.addr, ptr noundef nonnull align 4 dereferenceable(4) %arrayidx)
  %15 = load ptr, ptr %out.addr, align 8
  %call12 = invoke noundef nonnull align 8 dereferenceable(32) ptr @_ZNSt7__cxx1112basic_stringIcSt11char_traitsIcESaIcEEpLERKS4_(ptr noundef nonnull align 8 dereferenceable(32) %15, ptr noundef nonnull align 8 dereferenceable(32) %ref.tmp11)
          to label %invoke.cont unwind label %lpad

invoke.cont:                                      ; preds = %if.end10
  call void @_ZNSt7__cxx1112basic_stringIcSt11char_traitsIcESaIcEED1Ev(ptr noundef nonnull align 8 dereferenceable(32) %ref.tmp11) #3
  br label %for.inc

for.inc:                                          ; preds = %invoke.cont
  %16 = load i32, ptr %c, align 4
  %inc = add nsw i32 %16, 1
  store i32 %inc, ptr %c, align 4
  %17 = load ptr, ptr %f, align 8
  %incdec.ptr = getelementptr inbounds i32, ptr %17, i32 1
  store ptr %incdec.ptr, ptr %f, align 8
  br label %for.cond3, !llvm.loop !23

lpad:                                             ; preds = %if.end10
  %18 = landingpad { ptr, i32 }
          cleanup
  %19 = extractvalue { ptr, i32 } %18, 0
  store ptr %19, ptr %exn.slot, align 8
  %20 = extractvalue { ptr, i32 } %18, 1
  store i32 %20, ptr %ehselector.slot, align 4
  call void @_ZNSt7__cxx1112basic_stringIcSt11char_traitsIcESaIcEED1Ev(ptr noundef nonnull align 8 dereferenceable(32) %ref.tmp11) #3
  br label %eh.resume

for.end:                                          ; preds = %for.cond3
  br label %for.inc13

for.inc13:                                        ; preds = %for.end
  %21 = load i32, ptr %i, align 4
  %inc14 = add nsw i32 %21, 1
  store i32 %inc14, ptr %i, align 4
  br label %for.cond, !llvm.loop !24

for.end15:                                        ; preds = %for.cond
  ret void

eh.resume:                                        ; preds = %lpad
  %exn = load ptr, ptr %exn.slot, align 8
  %sel = load i32, ptr %ehselector.slot, align 4
  %lpad.val = insertvalue { ptr, i32 } poison, ptr %exn, 0
  %lpad.val16 = insertvalue { ptr, i32 } %lpad.val, i32 %sel, 1
  resume { ptr, i32 } %lpad.val16
}