; Function Attrs: mustprogress uwtable
define internal fastcc void @_ZN18OpenImageIO_v2_6_012_GLOBAL__N_110formatTypeIjEEvRKNS_10ParamValueEiiPKcRNSt7__cxx1112basic_stringIcSt11char_traitsIcESaIcEEE(ptr nocapture noundef nonnull readonly align 8 dereferenceable(39) %p, i32 noundef %beginindex, i32 noundef %endindex, ptr noundef nonnull align 8 dereferenceable(32) %out) unnamed_addr #10 personality ptr @__gxx_personality_v0 {
entry:
  %ref.tmp.i = alloca %"class.fmt::v8::format_arg_store.118", align 16
  %ref.tmp11 = alloca %"class.std::__cxx11::basic_string", align 8
  %aggregate3.i.i = getelementptr inbounds i8, ptr %p, i64 9
  %0 = load i8, ptr %aggregate3.i.i, align 1, !noalias !175
  %.fr = freeze i8 %0
  %conv = zext i8 %.fr to i32
  %cmp7 = icmp slt i32 %beginindex, %endindex
  br i1 %cmp7, label %for.body.lr.ph, label %for.end15

for.body.lr.ph:                                   ; preds = %entry
  %cmp63.not = icmp eq i8 %.fr, 0
  br i1 %cmp63.not, label %for.body, label %for.body.us.preheader

for.body.us.preheader:                            ; preds = %for.body.lr.ph
  %m_nonlocal.i = getelementptr inbounds i8, ptr %p, i64 38
  %1 = load i8, ptr %m_nonlocal.i, align 2
  %2 = and i8 %1, 1
  %tobool.not.i = icmp eq i8 %2, 0
  %m_data.i = getelementptr inbounds i8, ptr %p, i64 16
  %3 = load ptr, ptr %m_data.i, align 8
  %cond.i = select i1 %tobool.not.i, ptr %m_data.i, ptr %3
  %mul = mul nsw i32 %conv, %beginindex
  %idx.ext = sext i32 %mul to i64
  %add.ptr = getelementptr inbounds i32, ptr %cond.i, i64 %idx.ext
  br label %for.body.us

for.body.us:                                      ; preds = %for.body.us.preheader, %for.cond3.for.inc13_crit_edge.us
  %f.09.us = phi ptr [ %incdec.ptr.us, %for.cond3.for.inc13_crit_edge.us ], [ %add.ptr, %for.body.us.preheader ]
  %i.08.us = phi i32 [ %inc14.us, %for.cond3.for.inc13_crit_edge.us ], [ %beginindex, %for.body.us.preheader ]
  %cmp1.us = icmp sgt i32 %i.08.us, %beginindex
  br i1 %cmp1.us, label %if.then.us, label %for.body7.us.preheader

if.then.us:                                       ; preds = %for.body.us
  %call2.us = call noundef nonnull align 8 dereferenceable(32) ptr @_ZNSt7__cxx1112basic_stringIcSt11char_traitsIcESaIcEEpLEPKc(ptr noundef nonnull align 8 dereferenceable(32) %out, ptr noundef nonnull @.str.5)
  br label %for.body7.us.preheader

for.body7.us.preheader:                           ; preds = %if.then.us, %for.body.us
  br label %for.body7.us

for.body7.us:                                     ; preds = %for.body7.us.preheader, %invoke.cont.us
  %f.15.us = phi ptr [ %incdec.ptr.us, %invoke.cont.us ], [ %f.09.us, %for.body7.us.preheader ]
  %c.04.us = phi i32 [ %inc.us, %invoke.cont.us ], [ 0, %for.body7.us.preheader ]
  %tobool.not.us = icmp eq i32 %c.04.us, 0
  br i1 %tobool.not.us, label %if.end10.us, label %if.then8.us

if.then8.us:                                      ; preds = %for.body7.us
  %call9.us = call noundef nonnull align 8 dereferenceable(32) ptr @_ZNSt7__cxx1112basic_stringIcSt11char_traitsIcESaIcEEpLEPKc(ptr noundef nonnull align 8 dereferenceable(32) %out, ptr noundef nonnull @.str.14)
  br label %if.end10.us

if.end10.us:                                      ; preds = %if.then8.us, %for.body7.us
  call void @llvm.lifetime.start.p0(i64 16, ptr nonnull %ref.tmp.i)
  %4 = load i32, ptr %f.15.us, align 4, !noalias !178
  %retval.i.sroa.0.0.insert.ext.i.i.us = zext i32 %4 to i64
  store i64 %retval.i.sroa.0.0.insert.ext.i.i.us, ptr %ref.tmp.i, align 16, !noalias !178
  call void @_ZN3fmt2v87vformatB5cxx11ENS0_17basic_string_viewIcEENS0_17basic_format_argsINS0_20basic_format_contextINS0_8appenderEcEEEE(ptr nonnull sret(%"class.std::__cxx11::basic_string") align 8 %ref.tmp11, ptr nonnull @.str.8, i64 2, i64 2, ptr nonnull %ref.tmp.i)
  call void @llvm.lifetime.end.p0(i64 16, ptr nonnull %ref.tmp.i)
  %call12.us = invoke noundef nonnull align 8 dereferenceable(32) ptr @_ZNSt7__cxx1112basic_stringIcSt11char_traitsIcESaIcEEpLERKS4_(ptr noundef nonnull align 8 dereferenceable(32) %out, ptr noundef nonnull align 8 dereferenceable(32) %ref.tmp11)
          to label %invoke.cont.us unwind label %lpad.split.us

invoke.cont.us:                                   ; preds = %if.end10.us
  call void @_ZNSt7__cxx1112basic_stringIcSt11char_traitsIcESaIcEED1Ev(ptr noundef nonnull align 8 dereferenceable(32) %ref.tmp11) #24
  %inc.us = add nuw nsw i32 %c.04.us, 1
  %incdec.ptr.us = getelementptr inbounds i8, ptr %f.15.us, i64 4
  %exitcond.not = icmp eq i32 %inc.us, %conv
  br i1 %exitcond.not, label %for.cond3.for.inc13_crit_edge.us, label %for.body7.us, !llvm.loop !181

for.cond3.for.inc13_crit_edge.us:                 ; preds = %invoke.cont.us
  %inc14.us = add i32 %i.08.us, 1
  %exitcond11.not = icmp eq i32 %inc14.us, %endindex
  br i1 %exitcond11.not, label %for.end15, label %for.body.us, !llvm.loop !182

lpad.split.us:                                    ; preds = %if.end10.us
  %5 = landingpad { ptr, i32 }
          cleanup
  call void @_ZNSt7__cxx1112basic_stringIcSt11char_traitsIcESaIcEED1Ev(ptr noundef nonnull align 8 dereferenceable(32) %ref.tmp11) #24
  resume { ptr, i32 } %5

for.body:                                         ; preds = %for.body.lr.ph, %if.end
  %i.08 = phi i32 [ %inc14, %if.end ], [ %beginindex, %for.body.lr.ph ]
  %cmp1 = icmp sgt i32 %i.08, %beginindex
  br i1 %cmp1, label %if.then, label %if.end

if.then:                                          ; preds = %for.body
  %call2 = tail call noundef nonnull align 8 dereferenceable(32) ptr @_ZNSt7__cxx1112basic_stringIcSt11char_traitsIcESaIcEEpLEPKc(ptr noundef nonnull align 8 dereferenceable(32) %out, ptr noundef nonnull @.str.5)
  br label %if.end

if.end:                                           ; preds = %if.then, %for.body
  %inc14 = add i32 %i.08, 1
  %exitcond12.not = icmp eq i32 %inc14, %endindex
  br i1 %exitcond12.not, label %for.end15, label %for.body, !llvm.loop !182

for.end15:                                        ; preds = %for.cond3.for.inc13_crit_edge.us, %if.end, %entry
  ret void
}